; ModuleID = 'source-C-CXX/28/253.c'
source_filename = "source-C-CXX/28/253.c"
target datalayout = "e-m:e-p270:32:32-p271:32:32-p272:64:64-i64:64-f80:128-n8:16:32:64-S128"
target triple = "x86_64-pc-linux-gnu"

@.str = private unnamed_addr constant [3 x i8] c"%d\00", align 1
@.str.1 = private unnamed_addr constant [7 x i8] c"%.3lf\0A\00", align 1

; Function Attrs: nofree nosync nounwind readnone sspstrong uwtable
define dso_local i32 @fbnq(i32 %0) local_unnamed_addr #0 {
  br label %2

2:                                                ; preds = %6, %1
  %3 = phi i32 [ 0, %1 ], [ %10, %6 ]
  %4 = phi i32 [ %0, %1 ], [ %9, %6 ]
  %5 = icmp ult i32 %4, 2
  br i1 %5, label %11, label %6

6:                                                ; preds = %2
  %7 = add nsw i32 %4, -1
  %8 = tail call i32 @fbnq(i32 %7)
  %9 = add nsw i32 %4, -2
  %10 = add nsw i32 %8, %3
  br label %2

11:                                               ; preds = %2
  %12 = add nsw i32 %4, %3
  ret i32 %12
}

; Function Attrs: nofree nounwind sspstrong uwtable
define dso_local i32 @main() local_unnamed_addr #1 {
  %1 = alloca i32, align 4
  %2 = alloca i32, align 4
  %3 = bitcast i32* %1 to i8*
  call void @llvm.lifetime.start.p0i8(i64 4, i8* nonnull %3) #4
  %4 = bitcast i32* %2 to i8*
  call void @llvm.lifetime.start.p0i8(i64 4, i8* nonnull %4) #4
  %5 = call i32 (i8*, ...) @__isoc99_scanf(i8* getelementptr inbounds ([3 x i8], [3 x i8]* @.str, i64 0, i64 0), i32* nonnull %1)
  %6 = load i32, i32* %1, align 4, !tbaa !5
  %7 = icmp sgt i32 %6, 0
  br i1 %7, label %8, label %31

8:                                                ; preds = %0, %25
  %9 = phi i32 [ %28, %25 ], [ 0, %0 ]
  %10 = call i32 (i8*, ...) @__isoc99_scanf(i8* getelementptr inbounds ([3 x i8], [3 x i8]* @.str, i64 0, i64 0), i32* nonnull %2)
  %11 = load i32, i32* %2, align 4, !tbaa !5
  %12 = icmp slt i32 %11, 1
  br i1 %12, label %25, label %13

13:                                               ; preds = %8, %13
  %14 = phi double [ %23, %13 ], [ 0.000000e+00, %8 ]
  %15 = phi i32 [ %19, %13 ], [ 1, %8 ]
  %16 = add nuw nsw i32 %15, 2
  %17 = call i32 @fbnq(i32 %16)
  %18 = sitofp i32 %17 to double
  %19 = add nuw i32 %15, 1
  %20 = call i32 @fbnq(i32 %19)
  %21 = sitofp i32 %20 to double
  %22 = fdiv double %18, %21
  %23 = fadd double %14, %22
  %24 = icmp eq i32 %15, %11
  br i1 %24, label %25, label %13, !llvm.loop !9

25:                                               ; preds = %13, %8
  %26 = phi double [ 0.000000e+00, %8 ], [ %23, %13 ]
  %27 = call i32 (i8*, ...) @printf(i8* nonnull dereferenceable(1) getelementptr inbounds ([7 x i8], [7 x i8]* @.str.1, i64 0, i64 0), double %26)
  %28 = add nuw nsw i32 %9, 1
  %29 = load i32, i32* %1, align 4, !tbaa !5
  %30 = icmp slt i32 %28, %29
  br i1 %30, label %8, label %31, !llvm.loop !11

31:                                               ; preds = %25, %0
  call void @llvm.lifetime.end.p0i8(i64 4, i8* nonnull %4) #4
  call void @llvm.lifetime.end.p0i8(i64 4, i8* nonnull %3) #4
  ret i32 0
}

; Function Attrs: argmemonly mustprogress nofree nosync nounwind willreturn
declare void @llvm.lifetime.start.p0i8(i64 immarg, i8* nocapture) #2

; Function Attrs: nofree nounwind
declare noundef i32 @__isoc99_scanf(i8* nocapture noundef readonly, ...) local_unnamed_addr #3

; Function Attrs: nofree nounwind
declare noundef i32 @printf(i8* nocapture noundef readonly, ...) local_unnamed_addr #3

; Function Attrs: argmemonly mustprogress nofree nosync nounwind willreturn
declare void @llvm.lifetime.end.p0i8(i64 immarg, i8* nocapture) #2


!llvm.module.flags = !{!0, !1, !2, !3}
!llvm.ident = !{!4}

!0 = !{i32 1, !"wchar_size", i32 4}
!1 = !{i32 7, !"PIC Level", i32 2}
!2 = !{i32 7, !"PIE Level", i32 2}
!3 = !{i32 7, !"uwtable", i32 1}
!4 = !{!"clang version 13.0.0"}
!5 = !{!6, !6, i64 0}
!6 = !{!"int", !7, i64 0}
!7 = !{!"omnipotent char", !8, i64 0}
!8 = !{!"Simple C/C++ TBAA"}
!9 = distinct !{!9, !10}
!10 = !{!"llvm.loop.mustprogress"}
!11 = distinct !{!11, !10}
